; Function Attrs: mustprogress uwtable
define dso_local noundef zeroext i1 @_ZNK4base15CustomHistogram17SerializeInfoImplEPNS_6PickleE(ptr noundef nonnull align 8 dereferenceable(81) %this, ptr noundef %pickle) unnamed_addr #0 align 2 {
entry:
  %value.addr.i = alloca i32, align 4
  %call = tail call noundef zeroext i1 @_ZNK4base9Histogram17SerializeInfoImplEPNS_6PickleE(ptr noundef nonnull align 8 dereferenceable(81) %this, ptr noundef %pickle)
  br i1 %call, label %for.cond.preheader, label %return

for.cond.preheader:                               ; preds = %entry
  %bucket_ranges_.i = getelementptr inbounds i8, ptr %this, i64 48
  %0 = load ptr, ptr %bucket_ranges_.i, align 8
  %_M_finish.i.i5 = getelementptr inbounds i8, ptr %0, i64 8
  %1 = load ptr, ptr %_M_finish.i.i5, align 8
  %2 = load ptr, ptr %0, align 8
  %sub.ptr.lhs.cast.i.i6 = ptrtoint ptr %1 to i64
  %sub.ptr.rhs.cast.i.i7 = ptrtoint ptr %2 to i64
  %sub.ptr.sub.i.i8 = sub i64 %sub.ptr.lhs.cast.i.i6, %sub.ptr.rhs.cast.i.i7
  %sub.ptr.div.i.i9 = ashr exact i64 %sub.ptr.sub.i.i8, 2
  %3 = add nsw i64 %sub.ptr.div.i.i9, -3
  %cmp11 = icmp ult i64 %3, -2
  br i1 %cmp11, label %for.inc, label %return

for.inc:                                          ; preds = %for.cond.preheader, %for.inc
  %4 = phi ptr [ %8, %for.inc ], [ %2, %for.cond.preheader ]
  %conv13 = phi i64 [ %conv, %for.inc ], [ 1, %for.cond.preheader ]
  %i.012 = phi i32 [ %inc, %for.inc ], [ 1, %for.cond.preheader ]
  %add.ptr.i.i = getelementptr inbounds i32, ptr %4, i64 %conv13
  %5 = load i32, ptr %add.ptr.i.i, align 4
  call void @llvm.lifetime.start.p0(i64 4, ptr nonnull %value.addr.i)
  store i32 %5, ptr %value.addr.i, align 4
  call void @_ZN4base6Pickle16WriteBytesStaticILm4EEEvPKv(ptr noundef nonnull align 8 dereferenceable(40) %pickle, ptr noundef nonnull %value.addr.i)
  call void @llvm.lifetime.end.p0(i64 4, ptr nonnull %value.addr.i)
  %inc = add i32 %i.012, 1
  %conv = zext i32 %inc to i64
  %6 = load ptr, ptr %bucket_ranges_.i, align 8
  %_M_finish.i.i = getelementptr inbounds i8, ptr %6, i64 8
  %7 = load ptr, ptr %_M_finish.i.i, align 8
  %8 = load ptr, ptr %6, align 8
  %sub.ptr.lhs.cast.i.i = ptrtoint ptr %7 to i64
  %sub.ptr.rhs.cast.i.i = ptrtoint ptr %8 to i64
  %sub.ptr.sub.i.i = sub i64 %sub.ptr.lhs.cast.i.i, %sub.ptr.rhs.cast.i.i
  %sub.ptr.div.i.i = ashr exact i64 %sub.ptr.sub.i.i, 2
  %sub.i = add nsw i64 %sub.ptr.div.i.i, -1
  %cmp = icmp ugt i64 %sub.i, %conv
  br i1 %cmp, label %for.inc, label %return, !llvm.loop !40

return:                                           ; preds = %for.inc, %for.cond.preheader, %entry
  ret i1 %call
}